; Function Attrs: nounwind sspstrong uwtable
define internal noundef i64 @ossl_x509_set_version(i64 noundef %0, i64 noundef returned %1) #0 {
  %3 = and i64 %1, 1
  %.not.i = icmp eq i64 %3, 0
  br i1 %.not.i, label %6, label %4

4:                                                ; preds = %2
  %5 = ashr i64 %1, 1
  br label %rb_num2long_inline.exit

6:                                                ; preds = %2
  %7 = tail call i64 @rb_num2long(i64 noundef %1) #5
  br label %rb_num2long_inline.exit

rb_num2long_inline.exit:                          ; preds = %4, %6
  %.0.i = phi i64 [ %5, %4 ], [ %7, %6 ]
  %8 = icmp slt i64 %.0.i, 0
  br i1 %8, label %9, label %11

9:                                                ; preds = %rb_num2long_inline.exit
  %10 = load i64, ptr @eX509CertError, align 8, !tbaa !6
  tail call void (i64, ptr, ...) @ossl_raise(i64 noundef %10, ptr noundef nonnull @.str.38) #6
  unreachable

11:                                               ; preds = %rb_num2long_inline.exit
  %12 = tail call ptr @rb_check_typeddata(i64 noundef %0, ptr noundef nonnull @ossl_x509_type) #5
  %.not = icmp eq ptr %12, null
  br i1 %.not, label %13, label %15

13:                                               ; preds = %11
  %14 = load i64, ptr @rb_eRuntimeError, align 8, !tbaa !6
  tail call void (i64, ptr, ...) @ossl_raise(i64 noundef %14, ptr noundef nonnull @.str) #6
  unreachable

15:                                               ; preds = %11
  %16 = tail call i32 @X509_set_version(ptr noundef nonnull %12, i64 noundef %.0.i) #5
  %.not6 = icmp eq i32 %16, 0
  br i1 %.not6, label %17, label %19

17:                                               ; preds = %15
  %18 = load i64, ptr @eX509CertError, align 8, !tbaa !6
  tail call void (i64, ptr, ...) @ossl_raise(i64 noundef %18, ptr noundef null) #6
  unreachable

19:                                               ; preds = %15
  ret i64 %1
}